; Function Attrs: mustprogress uwtable
define hidden void @_ZN7VocData24calcClassifierPrecRecallERKNSt7__cxx1112basic_stringIcSt11char_traitsIcESaIcEEERKSt6vectorI8ObdImageSaIS9_EERKS8_IfSaIfEERSF_SI_RfRS8_ImSaImEE(ptr noundef nonnull align 8 dereferenceable(365) %0, ptr noundef nonnull align 8 dereferenceable(32) %1, ptr noundef nonnull readonly align 8 captures(none) dereferenceable(24) %2, ptr noundef nonnull readonly align 8 captures(none) dereferenceable(24) %3, ptr noundef nonnull align 8 dereferenceable(24) %4, ptr noundef nonnull align 8 dereferenceable(24) %5, ptr noundef nonnull align 4 captures(none) dereferenceable(4) %6, ptr noundef nonnull align 8 captures(none) dereferenceable(24) %7) local_unnamed_addr #4 align 2 personality ptr @__gxx_personality_v0 {
  %9 = alloca %"class.std::vector.3", align 8
  call void @llvm.lifetime.start.p0(i64 24, ptr nonnull %9) #32
  call void @llvm.memset.p0.i64(ptr noundef nonnull align 8 dereferenceable(24) %9, i8 0, i64 24, i1 false)
  invoke void @_ZN7VocData24getClassifierGroundTruthERKNSt7__cxx1112basic_stringIcSt11char_traitsIcESaIcEEERKSt6vectorI8ObdImageSaIS9_EERS8_IcS4_E(ptr noundef nonnull align 8 dereferenceable(365) %0, ptr noundef nonnull align 8 dereferenceable(32) %1, ptr noundef nonnull align 8 dereferenceable(24) %2, ptr noundef nonnull align 8 dereferenceable(24) %9)
          to label %10 unwind label %14

10:                                               ; preds = %8
  invoke void @_ZN7VocData19calcPrecRecall_implERKSt6vectorIcSaIcEERKS0_IfSaIfEERS6_S9_RfRS0_ImSaImEEi(ptr noundef nonnull align 8 dereferenceable(365) %0, ptr noundef nonnull align 8 dereferenceable(24) %9, ptr noundef nonnull align 8 dereferenceable(24) %3, ptr noundef nonnull align 8 dereferenceable(24) %4, ptr noundef nonnull align 8 dereferenceable(24) %5, ptr noundef nonnull align 4 dereferenceable(4) %6, ptr noundef nonnull align 8 dereferenceable(24) %7, i32 noundef -1)
          to label %11 unwind label %14

11:                                               ; preds = %10
  %12 = load ptr, ptr %9, align 8, !tbaa !27
  %.not.i.i.i = icmp eq ptr %12, null
  br i1 %.not.i.i.i, label %_ZNSt6vectorIcSaIcEED2Ev.exit, label %13

13:                                               ; preds = %11
  tail call void @_ZdlPv(ptr noundef nonnull %12) #33
  br label %_ZNSt6vectorIcSaIcEED2Ev.exit

_ZNSt6vectorIcSaIcEED2Ev.exit:                    ; preds = %11, %13
  call void @llvm.lifetime.end.p0(i64 24, ptr nonnull %9) #32
  ret void

14:                                               ; preds = %10, %8
  %15 = landingpad { ptr, i32 }
          cleanup
  %16 = load ptr, ptr %9, align 8, !tbaa !27
  %.not.i.i.i9 = icmp eq ptr %16, null
  br i1 %.not.i.i.i9, label %_ZNSt6vectorIcSaIcEED2Ev.exit10, label %17

17:                                               ; preds = %14
  tail call void @_ZdlPv(ptr noundef nonnull %16) #33
  br label %_ZNSt6vectorIcSaIcEED2Ev.exit10

_ZNSt6vectorIcSaIcEED2Ev.exit10:                  ; preds = %14, %17
  call void @llvm.lifetime.end.p0(i64 24, ptr nonnull %9) #32
  resume { ptr, i32 } %15
}